target datalayout = "e-m:e-p270:32:32-p271:32:32-p272:64:64-i64:64-i128:128-f80:128-n8:16:32:64-S128"
target triple = "x86_64-pc-linux-gnu"

%struct.Dar_Lib_t_ = type { ptr, i32, i32, [222 x i32], [222 x ptr], ptr, i32, ptr, [222 x ptr], ptr, [222 x ptr], ptr, [222 x ptr], [222 x i32], [222 x ptr], ptr, i32, i32, i32, [222 x i32], [222 x ptr], ptr, i32, [222 x i32], [222 x ptr], ptr, i32, ptr, i32, ptr, ptr, ptr, ptr, ptr }
%struct.Dar_LibObj_t_ = type { i64 }
%struct.Dar_LibDat_t_ = type { %union.anon, i32, i32, float, i8, [3 x i8] }
%union.anon = type { ptr }

@s_DarLib = internal global ptr null, align 8

; Function Attrs: nounwind uwtable
define internal ptr @Dar_LibObj(ptr noundef %0, i32 noundef %1) #0 {
  %3 = alloca ptr, align 8
  %4 = alloca i32, align 4
  store ptr %0, ptr %3, align 8
  store i32 %1, ptr %4, align 4
  %5 = load ptr, ptr %3, align 8
  %6 = getelementptr inbounds %struct.Dar_Lib_t_, ptr %5, i32 0, i32 0
  %7 = load ptr, ptr %6, align 8
  %8 = load i32, ptr %4, align 4
  %9 = sext i32 %8 to i64
  %10 = getelementptr inbounds %struct.Dar_LibObj_t_, ptr %7, i64 %9
  ret ptr %10
}

; Function Attrs: nounwind uwtable
define i32 @Dar_LibEval_rec(ptr noundef %0, i32 noundef %1, i32 noundef %2, i32 noundef %3, ptr noundef %4) #0 {
  %6 = alloca i32, align 4
  %7 = alloca ptr, align 8
  %8 = alloca i32, align 4
  %9 = alloca i32, align 4
  %10 = alloca i32, align 4
  %11 = alloca ptr, align 8
  %12 = alloca ptr, align 8
  %13 = alloca float, align 4
  %14 = alloca float, align 4
  %15 = alloca i32, align 4
  %16 = alloca ptr, align 8
  %17 = alloca ptr, align 8
  store ptr %0, ptr %7, align 8
  store i32 %1, ptr %8, align 4
  store i32 %2, ptr %9, align 4
  store i32 %3, ptr %10, align 4
  store ptr %4, ptr %11, align 8
  %18 = load ptr, ptr %11, align 8
  %19 = icmp ne ptr %18, null
  br i1 %19, label %20, label %22

20:                                               ; preds = %5
  %21 = load ptr, ptr %11, align 8
  store float 0.000000e+00, ptr %21, align 4
  br label %22

22:                                               ; preds = %20, %5
  %23 = load ptr, ptr @s_DarLib, align 8
  %24 = getelementptr inbounds %struct.Dar_Lib_t_, ptr %23, i32 0, i32 27
  %25 = load ptr, ptr %24, align 8
  %26 = load ptr, ptr %7, align 8
  %27 = load i64, ptr %26, align 4
  %28 = lshr i64 %27, 36
  %29 = trunc i64 %28 to i32
  %30 = sext i32 %29 to i64
  %31 = getelementptr inbounds %struct.Dar_LibDat_t_, ptr %25, i64 %30
  store ptr %31, ptr %12, align 8
  %32 = load ptr, ptr %12, align 8
  %33 = getelementptr inbounds %struct.Dar_LibDat_t_, ptr %32, i32 0, i32 2
  %34 = load i32, ptr %33, align 4
  %35 = load i32, ptr %8, align 4
  %36 = icmp eq i32 %34, %35
  br i1 %36, label %37, label %38

37:                                               ; preds = %22
  store i32 0, ptr %6, align 4
  br label %239

38:                                               ; preds = %22
  %39 = load i32, ptr %8, align 4
  %40 = load ptr, ptr %12, align 8
  %41 = getelementptr inbounds %struct.Dar_LibDat_t_, ptr %40, i32 0, i32 2
  store i32 %39, ptr %41, align 4
  %42 = load ptr, ptr %7, align 8
  %43 = load i64, ptr %42, align 4
  %44 = lshr i64 %43, 35
  %45 = and i64 %44, 1
  %46 = trunc i64 %45 to i32
  %47 = icmp ne i32 %46, 0
  br i1 %47, label %48, label %57

48:                                               ; preds = %38
  %49 = load ptr, ptr %11, align 8
  %50 = icmp ne ptr %49, null
  br i1 %50, label %51, label %56

51:                                               ; preds = %48
  %52 = load ptr, ptr %12, align 8
  %53 = getelementptr inbounds %struct.Dar_LibDat_t_, ptr %52, i32 0, i32 3
  %54 = load float, ptr %53, align 8
  %55 = load ptr, ptr %11, align 8
  store float %54, ptr %55, align 4
  br label %56

56:                                               ; preds = %51, %48
  store i32 0, ptr %6, align 4
  br label %239

57:                                               ; preds = %38
  %58 = load ptr, ptr %12, align 8
  %59 = getelementptr inbounds %struct.Dar_LibDat_t_, ptr %58, i32 0, i32 1
  %60 = load i32, ptr %59, align 8
  %61 = load i32, ptr %10, align 4
  %62 = icmp sgt i32 %60, %61
  br i1 %62, label %63, label %64

63:                                               ; preds = %57
  store i32 255, ptr %6, align 4
  br label %239

64:                                               ; preds = %57
  %65 = load ptr, ptr %12, align 8
  %66 = getelementptr inbounds %struct.Dar_LibDat_t_, ptr %65, i32 0, i32 0
  %67 = load ptr, ptr %66, align 8
  %68 = icmp ne ptr %67, null
  br i1 %68, label %69, label %83

69:                                               ; preds = %64
  %70 = load ptr, ptr %12, align 8
  %71 = getelementptr inbounds %struct.Dar_LibDat_t_, ptr %70, i32 0, i32 4
  %72 = load i8, ptr %71, align 4
  %73 = icmp ne i8 %72, 0
  br i1 %73, label %83, label %74

74:                                               ; preds = %69
  %75 = load ptr, ptr %11, align 8
  %76 = icmp ne ptr %75, null
  br i1 %76, label %77, label %82

77:                                               ; preds = %74
  %78 = load ptr, ptr %12, align 8
  %79 = getelementptr inbounds %struct.Dar_LibDat_t_, ptr %78, i32 0, i32 3
  %80 = load float, ptr %79, align 8
  %81 = load ptr, ptr %11, align 8
  store float %80, ptr %81, align 4
  br label %82

82:                                               ; preds = %77, %74
  store i32 0, ptr %6, align 4
  br label %239

83:                                               ; preds = %69, %64
  %84 = load i32, ptr %9, align 4
  %85 = add nsw i32 %84, -1
  store i32 %85, ptr %9, align 4
  %86 = load ptr, ptr @s_DarLib, align 8
  %87 = load ptr, ptr %7, align 8
  %88 = load i64, ptr %87, align 4
  %89 = and i64 %88, 65535
  %90 = trunc i64 %89 to i32
  %91 = call ptr @Dar_LibObj(ptr noundef %86, i32 noundef %90)
  %92 = load i32, ptr %8, align 4
  %93 = load i32, ptr %9, align 4
  %94 = load i32, ptr %10, align 4
  %95 = add nsw i32 %94, 1
  %96 = load ptr, ptr %11, align 8
  %97 = icmp ne ptr %96, null
  br i1 %97, label %98, label %99

98:                                               ; preds = %83
  br label %100

99:                                               ; preds = %83
  br label %100

100:                                              ; preds = %99, %98
  %101 = phi ptr [ %13, %98 ], [ null, %99 ]
  %102 = call i32 @Dar_LibEval_rec(ptr noundef %91, i32 noundef %92, i32 noundef %93, i32 noundef %95, ptr noundef %101)
  store i32 %102, ptr %15, align 4
  %103 = load i32, ptr %15, align 4
  %104 = load i32, ptr %9, align 4
  %105 = icmp sgt i32 %103, %104
  br i1 %105, label %106, label %107

106:                                              ; preds = %100
  store i32 255, ptr %6, align 4
  br label %239

107:                                              ; preds = %100
  %108 = load ptr, ptr @s_DarLib, align 8
  %109 = load ptr, ptr %7, align 8
  %110 = load i64, ptr %109, align 4
  %111 = lshr i64 %110, 16
  %112 = and i64 %111, 65535
  %113 = trunc i64 %112 to i32
  %114 = call ptr @Dar_LibObj(ptr noundef %108, i32 noundef %113)
  %115 = load i32, ptr %8, align 4
  %116 = load i32, ptr %9, align 4
  %117 = load i32, ptr %10, align 4
  %118 = add nsw i32 %117, 1
  %119 = load ptr, ptr %11, align 8
  %120 = icmp ne ptr %119, null
  br i1 %120, label %121, label %122

121:                                              ; preds = %107
  br label %123

122:                                              ; preds = %107
  br label %123

123:                                              ; preds = %122, %121
  %124 = phi ptr [ %14, %121 ], [ null, %122 ]
  %125 = call i32 @Dar_LibEval_rec(ptr noundef %114, i32 noundef %115, i32 noundef %116, i32 noundef %118, ptr noundef %124)
  %126 = load i32, ptr %15, align 4
  %127 = add nsw i32 %126, %125
  store i32 %127, ptr %15, align 4
  %128 = load i32, ptr %15, align 4
  %129 = load i32, ptr %9, align 4
  %130 = icmp sgt i32 %128, %129
  br i1 %130, label %131, label %132

131:                                              ; preds = %123
  store i32 255, ptr %6, align 4
  br label %239

132:                                              ; preds = %123
  %133 = load ptr, ptr %11, align 8
  %134 = icmp ne ptr %133, null
  br i1 %134, label %135, label %236

135:                                              ; preds = %132
  %136 = load ptr, ptr @s_DarLib, align 8
  %137 = getelementptr inbounds %struct.Dar_Lib_t_, ptr %136, i32 0, i32 27
  %138 = load ptr, ptr %137, align 8
  %139 = load ptr, ptr @s_DarLib, align 8
  %140 = load ptr, ptr %7, align 8
  %141 = load i64, ptr %140, align 4
  %142 = and i64 %141, 65535
  %143 = trunc i64 %142 to i32
  %144 = call ptr @Dar_LibObj(ptr noundef %139, i32 noundef %143)
  %145 = load i64, ptr %144, align 4
  %146 = lshr i64 %145, 36
  %147 = trunc i64 %146 to i32
  %148 = sext i32 %147 to i64
  %149 = getelementptr inbounds %struct.Dar_LibDat_t_, ptr %138, i64 %148
  store ptr %149, ptr %16, align 8
  %150 = load ptr, ptr @s_DarLib, align 8
  %151 = getelementptr inbounds %struct.Dar_Lib_t_, ptr %150, i32 0, i32 27
  %152 = load ptr, ptr %151, align 8
  %153 = load ptr, ptr @s_DarLib, align 8
  %154 = load ptr, ptr %7, align 8
  %155 = load i64, ptr %154, align 4
  %156 = lshr i64 %155, 16
  %157 = and i64 %156, 65535
  %158 = trunc i64 %157 to i32
  %159 = call ptr @Dar_LibObj(ptr noundef %153, i32 noundef %158)
  %160 = load i64, ptr %159, align 4
  %161 = lshr i64 %160, 36
  %162 = trunc i64 %161 to i32
  %163 = sext i32 %162 to i64
  %164 = getelementptr inbounds %struct.Dar_LibDat_t_, ptr %152, i64 %163
  store ptr %164, ptr %17, align 8
  %165 = load ptr, ptr %7, align 8
  %166 = load i64, ptr %165, align 4
  %167 = lshr i64 %166, 32
  %168 = and i64 %167, 1
  %169 = trunc i64 %168 to i32
  %170 = icmp ne i32 %169, 0
  br i1 %170, label %171, label %177

171:                                              ; preds = %135
  %172 = load ptr, ptr %16, align 8
  %173 = getelementptr inbounds %struct.Dar_LibDat_t_, ptr %172, i32 0, i32 3
  %174 = load float, ptr %173, align 8
  %175 = fpext float %174 to double
  %176 = fsub double 1.000000e+00, %175
  br label %182

177:                                              ; preds = %135
  %178 = load ptr, ptr %16, align 8
  %179 = getelementptr inbounds %struct.Dar_LibDat_t_, ptr %178, i32 0, i32 3
  %180 = load float, ptr %179, align 8
  %181 = fpext float %180 to double
  br label %182

182:                                              ; preds = %177, %171
  %183 = phi double [ %176, %171 ], [ %181, %177 ]
  %184 = load ptr, ptr %7, align 8
  %185 = load i64, ptr %184, align 4
  %186 = lshr i64 %185, 33
  %187 = and i64 %186, 1
  %188 = trunc i64 %187 to i32
  %189 = icmp ne i32 %188, 0
  br i1 %189, label %190, label %196

190:                                              ; preds = %182
  %191 = load ptr, ptr %17, align 8
  %192 = getelementptr inbounds %struct.Dar_LibDat_t_, ptr %191, i32 0, i32 3
  %193 = load float, ptr %192, align 8
  %194 = fpext float %193 to double
  %195 = fsub double 1.000000e+00, %194
  br label %201

196:                                              ; preds = %182
  %197 = load ptr, ptr %17, align 8
  %198 = getelementptr inbounds %struct.Dar_LibDat_t_, ptr %197, i32 0, i32 3
  %199 = load float, ptr %198, align 8
  %200 = fpext float %199 to double
  br label %201

201:                                              ; preds = %196, %190
  %202 = phi double [ %195, %190 ], [ %200, %196 ]
  %203 = fmul double %183, %202
  %204 = fptrunc double %203 to float
  %205 = load ptr, ptr %12, align 8
  %206 = getelementptr inbounds %struct.Dar_LibDat_t_, ptr %205, i32 0, i32 3
  store float %204, ptr %206, align 8
  %207 = load float, ptr %13, align 4
  %208 = fpext float %207 to double
  %209 = load ptr, ptr %16, align 8
  %210 = getelementptr inbounds %struct.Dar_LibDat_t_, ptr %209, i32 0, i32 3
  %211 = load float, ptr %210, align 8
  %212 = fpext float %211 to double
  %213 = fmul double 2.000000e+00, %212
  %214 = load ptr, ptr %16, align 8
  %215 = getelementptr inbounds %struct.Dar_LibDat_t_, ptr %214, i32 0, i32 3
  %216 = load float, ptr %215, align 8
  %217 = fpext float %216 to double
  %218 = fsub double 1.000000e+00, %217
  %219 = call double @llvm.fmuladd.f64(double %213, double %218, double %208)
  %220 = load float, ptr %14, align 4
  %221 = fpext float %220 to double
  %222 = fadd double %219, %221
  %223 = load ptr, ptr %17, align 8
  %224 = getelementptr inbounds %struct.Dar_LibDat_t_, ptr %223, i32 0, i32 3
  %225 = load float, ptr %224, align 8
  %226 = fpext float %225 to double
  %227 = fmul double 2.000000e+00, %226
  %228 = load ptr, ptr %17, align 8
  %229 = getelementptr inbounds %struct.Dar_LibDat_t_, ptr %228, i32 0, i32 3
  %230 = load float, ptr %229, align 8
  %231 = fpext float %230 to double
  %232 = fsub double 1.000000e+00, %231
  %233 = call double @llvm.fmuladd.f64(double %227, double %232, double %222)
  %234 = fptrunc double %233 to float
  %235 = load ptr, ptr %11, align 8
  store float %234, ptr %235, align 4
  br label %236

236:                                              ; preds = %201, %132
  %237 = load i32, ptr %15, align 4
  %238 = add nsw i32 %237, 1
  store i32 %238, ptr %6, align 4
  br label %239

239:                                              ; preds = %236, %131, %106, %82, %63, %56, %37
  %240 = load i32, ptr %6, align 4
  ret i32 %240
}