; Function Attrs: nofree nosync nounwind memory(readwrite, inaccessiblemem: none) uwtable
define range(i32 -2147483647, -2147483648) i32 @Dar_LibEval_rec(ptr noundef readonly captures(none) %0, i32 noundef %1, i32 noundef %2, i32 noundef %3, ptr noundef writeonly %4) local_unnamed_addr #9 {
  %6 = alloca float, align 4
  %7 = alloca float, align 4
  %.not = icmp eq ptr %4, null
  br i1 %.not, label %9, label %8

8:                                                ; preds = %5
  store float 0.000000e+00, ptr %4, align 4
  br label %9

9:                                                ; preds = %8, %5
  %10 = load ptr, ptr @s_DarLib, align 8
  %11 = getelementptr inbounds nuw i8, ptr %10, i64 16096
  %12 = load ptr, ptr %11, align 8
  %13 = load i64, ptr %0, align 4
  %14 = lshr i64 %13, 36
  %15 = getelementptr inbounds nuw %struct.Dar_LibDat_t_, ptr %12, i64 %14
  %16 = getelementptr inbounds nuw i8, ptr %15, i64 12
  %17 = load i32, ptr %16, align 4
  %18 = icmp eq i32 %17, %1
  br i1 %18, label %105, label %19

19:                                               ; preds = %9
  store i32 %1, ptr %16, align 4
  %20 = load i64, ptr %0, align 4
  %21 = and i64 %20, 34359738368
  %.not58 = icmp eq i64 %21, 0
  br i1 %.not58, label %26, label %22

22:                                               ; preds = %19
  br i1 %.not, label %105, label %23

23:                                               ; preds = %22
  %24 = getelementptr inbounds nuw i8, ptr %15, i64 16
  %25 = load float, ptr %24, align 8
  store float %25, ptr %4, align 4
  br label %105

26:                                               ; preds = %19
  %27 = getelementptr inbounds nuw i8, ptr %15, i64 8
  %28 = load i32, ptr %27, align 8
  %29 = icmp sgt i32 %28, %3
  br i1 %29, label %105, label %30

30:                                               ; preds = %26
  %31 = load ptr, ptr %15, align 8
  %.not59 = icmp eq ptr %31, null
  br i1 %.not59, label %39, label %32

32:                                               ; preds = %30
  %33 = getelementptr inbounds nuw i8, ptr %15, i64 20
  %34 = load i8, ptr %33, align 4
  %.not60 = icmp eq i8 %34, 0
  br i1 %.not60, label %35, label %39

35:                                               ; preds = %32
  br i1 %.not, label %105, label %36

36:                                               ; preds = %35
  %37 = getelementptr inbounds nuw i8, ptr %15, i64 16
  %38 = load float, ptr %37, align 8
  store float %38, ptr %4, align 4
  br label %105

39:                                               ; preds = %32, %30
  %40 = add nsw i32 %2, -1
  %41 = and i64 %20, 65535
  %.val67 = load ptr, ptr %10, align 8
  %42 = getelementptr inbounds nuw %struct.Dar_LibObj_t_, ptr %.val67, i64 %41
  %43 = add nsw i32 %3, 1
  %. = select i1 %.not, ptr null, ptr %6
  %44 = call i32 @Dar_LibEval_rec(ptr noundef %42, i32 noundef %1, i32 noundef %40, i32 noundef %43, ptr noundef %.)
  %.not61 = icmp slt i32 %44, %2
  br i1 %.not61, label %45, label %105

45:                                               ; preds = %39
  %46 = load ptr, ptr @s_DarLib, align 8
  %47 = load i64, ptr %0, align 4
  %48 = lshr i64 %47, 16
  %.val66 = load ptr, ptr %46, align 8
  %49 = and i64 %48, 65535
  %50 = getelementptr inbounds nuw %struct.Dar_LibObj_t_, ptr %.val66, i64 %49
  %.1 = select i1 %.not, ptr null, ptr %7
  %51 = call i32 @Dar_LibEval_rec(ptr noundef %50, i32 noundef %1, i32 noundef %40, i32 noundef %43, ptr noundef %.1)
  %52 = add nsw i32 %51, %44
  %.not62 = icmp slt i32 %52, %2
  br i1 %.not62, label %53, label %105

53:                                               ; preds = %45
  br i1 %.not, label %103, label %54

54:                                               ; preds = %53
  %55 = load ptr, ptr @s_DarLib, align 8
  %56 = getelementptr inbounds nuw i8, ptr %55, i64 16096
  %57 = load ptr, ptr %56, align 8
  %58 = load i64, ptr %0, align 4
  %59 = and i64 %58, 65535
  %.val65 = load ptr, ptr %55, align 8
  %60 = getelementptr inbounds nuw %struct.Dar_LibObj_t_, ptr %.val65, i64 %59
  %61 = load i64, ptr %60, align 4
  %62 = lshr i64 %61, 36
  %63 = getelementptr inbounds nuw %struct.Dar_LibDat_t_, ptr %57, i64 %62
  %64 = lshr i64 %58, 16
  %65 = and i64 %64, 65535
  %66 = getelementptr inbounds nuw %struct.Dar_LibObj_t_, ptr %.val65, i64 %65
  %67 = load i64, ptr %66, align 4
  %68 = lshr i64 %67, 36
  %69 = getelementptr inbounds nuw %struct.Dar_LibDat_t_, ptr %57, i64 %68
  %70 = and i64 %58, 4294967296
  %.not63 = icmp eq i64 %70, 0
  %71 = getelementptr inbounds nuw i8, ptr %63, i64 16
  %72 = load float, ptr %71, align 8
  %73 = fpext float %72 to double
  %74 = fsub double 1.000000e+00, %73
  %75 = select i1 %.not63, double %73, double %74
  %76 = and i64 %58, 8589934592
  %.not64 = icmp eq i64 %76, 0
  %77 = getelementptr inbounds nuw i8, ptr %69, i64 16
  %78 = load float, ptr %77, align 8
  %79 = fpext float %78 to double
  %80 = fsub double 1.000000e+00, %79
  %81 = select i1 %.not64, double %79, double %80
  %82 = fmul double %75, %81
  %83 = fptrunc double %82 to float
  %84 = getelementptr inbounds nuw i8, ptr %15, i64 16
  store float %83, ptr %84, align 8
  %85 = load float, ptr %6, align 4
  %86 = fpext float %85 to double
  %87 = getelementptr inbounds nuw i8, ptr %63, i64 16
  %88 = load float, ptr %87, align 8
  %89 = fpext float %88 to double
  %90 = fmul double %89, 2.000000e+00
  %91 = fsub double 1.000000e+00, %89
  %92 = call double @llvm.fmuladd.f64(double %90, double %91, double %86)
  %93 = load float, ptr %7, align 4
  %94 = fpext float %93 to double
  %95 = fadd double %92, %94
  %96 = getelementptr inbounds nuw i8, ptr %69, i64 16
  %97 = load float, ptr %96, align 8
  %98 = fpext float %97 to double
  %99 = fmul double %98, 2.000000e+00
  %100 = fsub double 1.000000e+00, %98
  %101 = call double @llvm.fmuladd.f64(double %99, double %100, double %95)
  %102 = fptrunc double %101 to float
  store float %102, ptr %4, align 4
  br label %103

103:                                              ; preds = %54, %53
  %104 = add nsw i32 %52, 1
  br label %105

105:                                              ; preds = %45, %39, %35, %36, %26, %22, %23, %9, %103
  %.0 = phi i32 [ %104, %103 ], [ 0, %9 ], [ 0, %23 ], [ 0, %22 ], [ 255, %26 ], [ 0, %36 ], [ 0, %35 ], [ 255, %39 ], [ 255, %45 ]
  ret i32 %.0
}